; Function Attrs: mustprogress nounwind uwtable
define range(i32 0, -65535) i32 @_ZNK8WasmEdge4Host4WASI5INode11pathSymlinkENSt7__cxx1112basic_stringIcSt11char_traitsIcESaIcEEES8_(ptr noundef nonnull readonly align 8 captures(none) dereferenceable(200) %0, ptr noundef nonnull %1, ptr noundef %2) local_unnamed_addr #0 align 2 personality ptr @__gxx_personality_v0 {
  %4 = tail call noundef ptr @_ZNKSt7__cxx1112basic_stringIcSt11char_traitsIcESaIcEE5c_strEv(ptr noundef nonnull align 8 dereferenceable(32) %1) #24
  %5 = load i32, ptr %0, align 8
  %6 = tail call noundef ptr @_ZNKSt7__cxx1112basic_stringIcSt11char_traitsIcESaIcEE5c_strEv(ptr noundef nonnull align 8 dereferenceable(32) %2) #24
  %7 = tail call i32 @symlinkat(ptr noundef %4, i32 noundef %5, ptr noundef %6) #24
  %.not = icmp eq i32 %7, 0
  br i1 %.not, label %14, label %8

8:                                                ; preds = %3
  %9 = tail call ptr @__errno_location() #25
  %10 = load i32, ptr %9, align 4
  %11 = tail call noundef zeroext i16 @_ZN8WasmEdge4Host4WASI6detail9fromErrNoEi(i32 noundef %10) #24
  %12 = zext i16 %11 to i32
  %13 = shl nuw i32 %12, 16
  br label %14

14:                                               ; preds = %3, %8
  %.sroa.01.0.insert.insert = phi i32 [ %13, %8 ], [ 1, %3 ]
  ret i32 %.sroa.01.0.insert.insert
}